; ModuleID = '27/140.c'
source_filename = "27/140.c"
target datalayout = "e-m:e-p270:32:32-p271:32:32-p272:64:64-i64:64-f80:128-n8:16:32:64-S128"
target triple = "x86_64-pc-linux-gnu"

@.str = private unnamed_addr constant [3 x i8] c"%d\00", align 1
@.str.1 = private unnamed_addr constant [10 x i8] c"%f %f %f\0A\00", align 1
@.str.2 = private unnamed_addr constant [29 x i8] c"x1=%.5f+%.5fi;x2=%.5f-%.5fi\0A\00", align 1
@.str.3 = private unnamed_addr constant [12 x i8] c"x1=x2=%.5f\0A\00", align 1
@.str.4 = private unnamed_addr constant [17 x i8] c"x1=%.5f;x2=%.5f\0A\00", align 1

; Function Attrs: noinline nounwind uwtable
define dso_local i32 @main() #0 {
  %1 = alloca i32, align 4
  %2 = alloca i32, align 4
  %3 = alloca i32, align 4
  %4 = alloca float, align 4
  %5 = alloca float, align 4
  %6 = alloca float, align 4
  %7 = alloca double, align 8
  %8 = alloca double, align 8
  %9 = alloca double, align 8
  %10 = alloca double, align 8
  %11 = alloca double, align 8
  store i32 0, i32* %1, align 4
  %12 = call i32 (i8*, ...) @__isoc99_scanf(i8* getelementptr inbounds ([3 x i8], [3 x i8]* @.str, i64 0, i64 0), i32* %2)
  store i32 0, i32* %3, align 4
  br label %13

13:                                               ; preds = %95, %0
  %14 = load i32, i32* %3, align 4
  %15 = load i32, i32* %2, align 4
  %16 = icmp slt i32 %14, %15
  br i1 %16, label %17, label %98

17:                                               ; preds = %13
  %18 = call i32 (i8*, ...) @__isoc99_scanf(i8* getelementptr inbounds ([10 x i8], [10 x i8]* @.str.1, i64 0, i64 0), float* %4, float* %5, float* %6)
  %19 = load float, float* %5, align 4
  %20 = load float, float* %5, align 4
  %21 = fmul float %19, %20
  %22 = load float, float* %4, align 4
  %23 = fmul float 4.000000e+00, %22
  %24 = load float, float* %6, align 4
  %25 = fmul float %23, %24
  %26 = fsub float %21, %25
  %27 = fcmp olt float %26, 0.000000e+00
  br i1 %27, label %28, label %56

28:                                               ; preds = %17
  %29 = load float, float* %5, align 4
  %30 = fneg float %29
  %31 = load float, float* %5, align 4
  %32 = fmul float %30, %31
  %33 = load float, float* %4, align 4
  %34 = fmul float 4.000000e+00, %33
  %35 = load float, float* %6, align 4
  %36 = fmul float %34, %35
  %37 = fadd float %32, %36
  %38 = fpext float %37 to double
  %39 = call double @sqrt(double %38) #3
  store double %39, double* %9, align 8
  %40 = load float, float* %5, align 4
  %41 = fneg float %40
  %42 = load float, float* %4, align 4
  %43 = fmul float 2.000000e+00, %42
  %44 = fdiv float %41, %43
  %45 = fpext float %44 to double
  store double %45, double* %7, align 8
  %46 = load double, double* %9, align 8
  %47 = load float, float* %4, align 4
  %48 = fmul float 2.000000e+00, %47
  %49 = fpext float %48 to double
  %50 = fdiv double %46, %49
  store double %50, double* %8, align 8
  %51 = load double, double* %7, align 8
  %52 = load double, double* %8, align 8
  %53 = load double, double* %7, align 8
  %54 = load double, double* %8, align 8
  %55 = call i32 (i8*, ...) @printf(i8* getelementptr inbounds ([29 x i8], [29 x i8]* @.str.2, i64 0, i64 0), double %51, double %52, double %53, double %54)
  br label %94

56:                                               ; preds = %17
  %57 = load float, float* %5, align 4
  %58 = load float, float* %5, align 4
  %59 = fmul float %57, %58
  %60 = load float, float* %4, align 4
  %61 = fmul float 4.000000e+00, %60
  %62 = load float, float* %6, align 4
  %63 = fmul float %61, %62
  %64 = fsub float %59, %63
  %65 = fpext float %64 to double
  %66 = call double @sqrt(double %65) #3
  store double %66, double* %9, align 8
  %67 = load float, float* %5, align 4
  %68 = fneg float %67
  %69 = load float, float* %4, align 4
  %70 = fmul float 2.000000e+00, %69
  %71 = fdiv float %68, %70
  %72 = fpext float %71 to double
  store double %72, double* %7, align 8
  %73 = load double, double* %9, align 8
  %74 = load float, float* %4, align 4
  %75 = fmul float 2.000000e+00, %74
  %76 = fpext float %75 to double
  %77 = fdiv double %73, %76
  store double %77, double* %8, align 8
  %78 = load double, double* %7, align 8
  %79 = load double, double* %8, align 8
  %80 = fadd double %78, %79
  store double %80, double* %10, align 8
  %81 = load double, double* %7, align 8
  %82 = load double, double* %8, align 8
  %83 = fsub double %81, %82
  store double %83, double* %11, align 8
  %84 = load double, double* %8, align 8
  %85 = fcmp oeq double %84, 0.000000e+00
  br i1 %85, label %86, label %89

86:                                               ; preds = %56
  %87 = load double, double* %7, align 8
  %88 = call i32 (i8*, ...) @printf(i8* getelementptr inbounds ([12 x i8], [12 x i8]* @.str.3, i64 0, i64 0), double %87)
  br label %93

89:                                               ; preds = %56
  %90 = load double, double* %10, align 8
  %91 = load double, double* %11, align 8
  %92 = call i32 (i8*, ...) @printf(i8* getelementptr inbounds ([17 x i8], [17 x i8]* @.str.4, i64 0, i64 0), double %90, double %91)
  br label %93

93:                                               ; preds = %89, %86
  br label %94

94:                                               ; preds = %93, %28
  br label %95

95:                                               ; preds = %94
  %96 = load i32, i32* %3, align 4
  %97 = add nsw i32 %96, 1
  store i32 %97, i32* %3, align 4
  br label %13

98:                                               ; preds = %13
  ret i32 0
}

declare dso_local i32 @__isoc99_scanf(i8*, ...) #1

; Function Attrs: nounwind
declare dso_local double @sqrt(double) #2

declare dso_local i32 @printf(i8*, ...) #1


!llvm.module.flags = !{!0}
!llvm.ident = !{!1}

!0 = !{i32 1, !"wchar_size", i32 4}
!1 = !{!"clang version 10.0.0-4ubuntu1 "}
