; ModuleID = 'source-C-CXX/26/140.c'
source_filename = "source-C-CXX/26/140.c"
target datalayout = "e-m:e-p270:32:32-p271:32:32-p272:64:64-i64:64-f80:128-n8:16:32:64-S128"
target triple = "x86_64-pc-linux-gnu"

@.str = private unnamed_addr constant [3 x i8] c"%d\00", align 1
@.str.1 = private unnamed_addr constant [10 x i8] c"%f %f %f\0A\00", align 1
@.str.2 = private unnamed_addr constant [29 x i8] c"x1=%.5f+%.5fi;x2=%.5f-%.5fi\0A\00", align 1
@.str.3 = private unnamed_addr constant [12 x i8] c"x1=x2=%.5f\0A\00", align 1
@.str.4 = private unnamed_addr constant [17 x i8] c"x1=%.5f;x2=%.5f\0A\00", align 1

; Function Attrs: nofree nounwind sspstrong uwtable
define dso_local i32 @main() local_unnamed_addr #0 {
  %1 = alloca i32, align 4
  %2 = alloca float, align 4
  %3 = alloca float, align 4
  %4 = alloca float, align 4
  %5 = bitcast i32* %1 to i8*
  call void @llvm.lifetime.start.p0i8(i64 4, i8* nonnull %5) #4
  %6 = call i32 (i8*, ...) @__isoc99_scanf(i8* getelementptr inbounds ([3 x i8], [3 x i8]* @.str, i64 0, i64 0), i32* nonnull %1)
  %7 = bitcast float* %2 to i8*
  %8 = bitcast float* %3 to i8*
  %9 = bitcast float* %4 to i8*
  %10 = load i32, i32* %1, align 4, !tbaa !5
  %11 = icmp sgt i32 %10, 0
  br i1 %11, label %12, label %58

12:                                               ; preds = %0, %54
  %13 = phi i32 [ %55, %54 ], [ 0, %0 ]
  call void @llvm.lifetime.start.p0i8(i64 4, i8* nonnull %7) #4
  call void @llvm.lifetime.start.p0i8(i64 4, i8* nonnull %8) #4
  call void @llvm.lifetime.start.p0i8(i64 4, i8* nonnull %9) #4
  %14 = call i32 (i8*, ...) @__isoc99_scanf(i8* getelementptr inbounds ([10 x i8], [10 x i8]* @.str.1, i64 0, i64 0), float* nonnull %2, float* nonnull %3, float* nonnull %4)
  %15 = load float, float* %3, align 4, !tbaa !9
  %16 = fmul float %15, %15
  %17 = load float, float* %2, align 4, !tbaa !9
  %18 = fmul float %17, 4.000000e+00
  %19 = load float, float* %4, align 4, !tbaa !9
  %20 = fmul float %18, %19
  %21 = fsub float %16, %20
  %22 = fcmp olt float %21, 0.000000e+00
  br i1 %22, label %23, label %36

23:                                               ; preds = %12
  %24 = fsub float %20, %16
  %25 = fpext float %24 to double
  %26 = call double @sqrt(double %25) #4
  %27 = load float, float* %3, align 4, !tbaa !9
  %28 = fneg float %27
  %29 = load float, float* %2, align 4, !tbaa !9
  %30 = fmul float %29, 2.000000e+00
  %31 = fdiv float %28, %30
  %32 = fpext float %31 to double
  %33 = fpext float %30 to double
  %34 = fdiv double %26, %33
  %35 = call i32 (i8*, ...) @printf(i8* nonnull dereferenceable(1) getelementptr inbounds ([29 x i8], [29 x i8]* @.str.2, i64 0, i64 0), double %32, double %34, double %32, double %34)
  br label %54

36:                                               ; preds = %12
  %37 = fpext float %21 to double
  %38 = call double @sqrt(double %37) #4
  %39 = load float, float* %3, align 4, !tbaa !9
  %40 = fneg float %39
  %41 = load float, float* %2, align 4, !tbaa !9
  %42 = fmul float %41, 2.000000e+00
  %43 = fdiv float %40, %42
  %44 = fpext float %43 to double
  %45 = fpext float %42 to double
  %46 = fdiv double %38, %45
  %47 = fcmp oeq double %46, 0.000000e+00
  br i1 %47, label %48, label %50

48:                                               ; preds = %36
  %49 = call i32 (i8*, ...) @printf(i8* nonnull dereferenceable(1) getelementptr inbounds ([12 x i8], [12 x i8]* @.str.3, i64 0, i64 0), double %44)
  br label %54

50:                                               ; preds = %36
  %51 = fsub double %44, %46
  %52 = fadd double %46, %44
  %53 = call i32 (i8*, ...) @printf(i8* nonnull dereferenceable(1) getelementptr inbounds ([17 x i8], [17 x i8]* @.str.4, i64 0, i64 0), double %52, double %51)
  br label %54

54:                                               ; preds = %48, %50, %23
  call void @llvm.lifetime.end.p0i8(i64 4, i8* nonnull %9) #4
  call void @llvm.lifetime.end.p0i8(i64 4, i8* nonnull %8) #4
  call void @llvm.lifetime.end.p0i8(i64 4, i8* nonnull %7) #4
  %55 = add nuw nsw i32 %13, 1
  %56 = load i32, i32* %1, align 4, !tbaa !5
  %57 = icmp slt i32 %55, %56
  br i1 %57, label %12, label %58, !llvm.loop !11

58:                                               ; preds = %54, %0
  call void @llvm.lifetime.end.p0i8(i64 4, i8* nonnull %5) #4
  ret i32 0
}

; Function Attrs: argmemonly mustprogress nofree nosync nounwind willreturn
declare void @llvm.lifetime.start.p0i8(i64 immarg, i8* nocapture) #1

; Function Attrs: nofree nounwind
declare noundef i32 @__isoc99_scanf(i8* nocapture noundef readonly, ...) local_unnamed_addr #2

; Function Attrs: mustprogress nofree nounwind willreturn
declare double @sqrt(double) local_unnamed_addr #3

; Function Attrs: nofree nounwind
declare noundef i32 @printf(i8* nocapture noundef readonly, ...) local_unnamed_addr #2

; Function Attrs: argmemonly mustprogress nofree nosync nounwind willreturn
declare void @llvm.lifetime.end.p0i8(i64 immarg, i8* nocapture) #1


!llvm.module.flags = !{!0, !1, !2, !3}
!llvm.ident = !{!4}

!0 = !{i32 1, !"wchar_size", i32 4}
!1 = !{i32 7, !"PIC Level", i32 2}
!2 = !{i32 7, !"PIE Level", i32 2}
!3 = !{i32 7, !"uwtable", i32 1}
!4 = !{!"clang version 13.0.0"}
!5 = !{!6, !6, i64 0}
!6 = !{!"int", !7, i64 0}
!7 = !{!"omnipotent char", !8, i64 0}
!8 = !{!"Simple C/C++ TBAA"}
!9 = !{!10, !10, i64 0}
!10 = !{!"float", !7, i64 0}
!11 = distinct !{!11, !12}
!12 = !{!"llvm.loop.mustprogress"}
